; Function Attrs: nounwind uwtable
define void @TS_TST_INFO_ext_free(ptr noundef captures(address_is_null) %0) local_unnamed_addr #0 {
  %.not = icmp eq ptr %0, null
  br i1 %.not, label %5, label %2

2:                                                ; preds = %1
  %3 = getelementptr inbounds nuw i8, ptr %0, i64 72
  %4 = load ptr, ptr %3, align 8, !tbaa !34
  tail call void @OPENSSL_sk_pop_free(ptr noundef %4, ptr noundef nonnull @X509_EXTENSION_free) #4
  store ptr null, ptr %3, align 8, !tbaa !34
  br label %5

5:                                                ; preds = %1, %2
  ret void
}